; Function Attrs: nounwind uwtable
define void @Java_sun_nio_fs_UnixNativeDispatcher_mkdir0(ptr noundef %0, ptr nocapture noundef readnone %1, i64 noundef %2, i32 noundef %3) local_unnamed_addr #0 {
  %5 = inttoptr i64 %2 to ptr
  %6 = tail call i32 @mkdir(ptr noundef %5, i32 noundef %3) #11
  %7 = icmp eq i32 %6, -1
  br i1 %7, label %8, label %throwUnixException.exit

8:                                                ; preds = %4
  %9 = tail call ptr @__errno_location() #12
  %10 = load i32, ptr %9, align 4
  %11 = tail call ptr (ptr, ptr, ptr, ...) @JNU_NewObjectByName(ptr noundef %0, ptr noundef nonnull @.str.46, ptr noundef nonnull @.str.47, i32 noundef %10) #11
  %.not.i = icmp eq ptr %11, null
  br i1 %.not.i, label %throwUnixException.exit, label %12

12:                                               ; preds = %8
  %13 = load ptr, ptr %0, align 8
  %14 = getelementptr inbounds i8, ptr %13, i64 104
  %15 = load ptr, ptr %14, align 8
  %16 = tail call i32 %15(ptr noundef nonnull %0, ptr noundef nonnull %11) #11
  br label %throwUnixException.exit

throwUnixException.exit:                          ; preds = %12, %8, %4
  ret void
}